; Function Attrs: nounwind uwtable
define hidden i32 @Curl_cf_unix_create(ptr noundef writeonly captures(none) initializes((0, 8)) %0, ptr noundef readnone captures(none) %1, ptr noundef readnone captures(none) %2, ptr noundef readonly captures(none) %3, i32 noundef %4) local_unnamed_addr #2 {
  %6 = alloca ptr, align 8
  call void @llvm.lifetime.start.p0(i64 8, ptr nonnull %6) #13
  store ptr null, ptr %6, align 8, !tbaa !142
  %7 = load ptr, ptr @Curl_ccalloc, align 8, !tbaa !103
  %8 = tail call ptr %7(i64 noundef 1, i64 noundef 312) #13
  %.not = icmp eq ptr %8, null
  br i1 %.not, label %cf_socket_ctx_init.exit.thread16, label %9

9:                                                ; preds = %5
  tail call void @llvm.memset.p0.i64(ptr noundef nonnull align 8 dereferenceable(312) %8, i8 0, i64 312, i1 false)
  %10 = getelementptr inbounds nuw i8, ptr %8, i64 152
  store i32 -1, ptr %10, align 8, !tbaa !116
  store i32 %4, ptr %8, align 8, !tbaa !128
  %11 = getelementptr inbounds nuw i8, ptr %8, i64 8
  %12 = getelementptr inbounds nuw i8, ptr %3, i64 4
  %13 = load i32, ptr %12, align 4, !tbaa !3
  store i32 %13, ptr %11, align 8, !tbaa !12
  %14 = getelementptr inbounds nuw i8, ptr %8, i64 12
  %15 = getelementptr inbounds nuw i8, ptr %8, i64 16
  switch i32 %4, label %17 [
    i32 3, label %18
    i32 6, label %16
  ]

16:                                               ; preds = %9
  br label %18

17:                                               ; preds = %9
  br label %18

18:                                               ; preds = %17, %16, %9
  %.sink16.i.i = phi i32 [ 2, %17 ], [ 1, %16 ], [ 1, %9 ]
  %.sink.i.i = phi i32 [ 17, %17 ], [ 0, %16 ], [ 6, %9 ]
  store i32 %.sink16.i.i, ptr %14, align 4, !tbaa !14
  store i32 %.sink.i.i, ptr %15, align 8, !tbaa !15
  %19 = getelementptr inbounds nuw i8, ptr %3, i64 16
  %20 = load i32, ptr %19, align 8, !tbaa !16
  %21 = getelementptr inbounds nuw i8, ptr %8, i64 20
  store i32 %20, ptr %21, align 4, !tbaa !17
  %22 = icmp ugt i32 %20, 128
  br i1 %22, label %cf_socket_ctx_init.exit.thread16, label %cf_socket_ctx_init.exit

cf_socket_ctx_init.exit.thread16:                 ; preds = %5, %18
  %.0.ph = phi i32 [ 100, %18 ], [ 27, %5 ]
  store ptr null, ptr %0, align 8, !tbaa !142
  br label %30

cf_socket_ctx_init.exit:                          ; preds = %18
  %23 = zext nneg i32 %20 to i64
  %24 = getelementptr inbounds nuw i8, ptr %8, i64 24
  %25 = getelementptr inbounds nuw i8, ptr %3, i64 32
  %26 = load ptr, ptr %25, align 8, !tbaa !18
  tail call void @llvm.memcpy.p0.p0.i64(ptr nonnull align 8 %24, ptr align 2 %26, i64 %23, i1 false)
  %27 = call i32 @Curl_cf_create(ptr noundef nonnull %6, ptr noundef nonnull @Curl_cft_unix, ptr noundef nonnull %8) #13
  %.not13 = icmp eq i32 %27, 0
  %28 = load ptr, ptr %6, align 8
  %29 = select i1 %.not13, ptr %28, ptr null
  store ptr %29, ptr %0, align 8, !tbaa !142
  br i1 %.not13, label %34, label %30

30:                                               ; preds = %cf_socket_ctx_init.exit.thread16, %cf_socket_ctx_init.exit
  %31 = phi ptr [ null, %cf_socket_ctx_init.exit.thread16 ], [ %28, %cf_socket_ctx_init.exit ]
  %.019 = phi i32 [ %.0.ph, %cf_socket_ctx_init.exit.thread16 ], [ %27, %cf_socket_ctx_init.exit ]
  %32 = load ptr, ptr @Curl_cfree, align 8, !tbaa !103
  call void %32(ptr noundef %31) #13
  store ptr null, ptr %6, align 8, !tbaa !142
  %33 = load ptr, ptr @Curl_cfree, align 8, !tbaa !103
  call void %33(ptr noundef %8) #13
  br label %34

34:                                               ; preds = %30, %cf_socket_ctx_init.exit
  %.020 = phi i32 [ %.019, %30 ], [ 0, %cf_socket_ctx_init.exit ]
  call void @llvm.lifetime.end.p0(i64 8, ptr nonnull %6) #13
  ret i32 %.020
}